(dp0
S'failed'
p1
(lp2
sS'source_names'
p3
(lp4
S'.'
p5
asS'ids'
p6
(dp7
I1
(S'/Users/aeg/Documents/Projects/mtgforge/oracle/tests/__init__.py'
p8
S'mtgforge.oracle.tests'
p9
S'CardSetModelTest.test_card_set_empty_acronym'
p10
tp11
sI2
(S'/Users/aeg/Documents/Projects/mtgforge/oracle/tests/__init__.py'
p12
g9
S'CardSetModelTest.test_card_set_empty_name'
p13
tp14
sI3
(S'/Users/aeg/Documents/Projects/mtgforge/oracle/tests/__init__.py'
p15
g9
S'CardSetModelTest.test_card_set_long_acronym'
p16
tp17
sI4
(S'/Users/aeg/Documents/Projects/mtgforge/oracle/tests/__init__.py'
p18
g9
S'CardSetModelTest.test_card_set_unique_acronym'
p19
tp20
sI5
(S'/Users/aeg/Documents/Projects/mtgforge/oracle/tests/__init__.py'
p21
g9
S'CardSetModelTest.test_card_set_unique_name'
p22
tp23
sI6
(S'/Users/aeg/Documents/Projects/mtgforge/oracle/tests/__init__.py'
p24
g9
S'CardSetModelTest.test_name_translation'
p25
tp26
sI7
(S'/Users/aeg/Documents/Projects/mtgforge/oracle/tests/__init__.py'
p27
g9
S'FetchCardSetsCommandTest.test_acronym_generation'
p28
tp29
ss.